; Function Attrs: mustprogress uwtable
define dso_local void @_ZNK11V3Statistic4dumpERSt14basic_ofstreamIcSt11char_traitsIcEE(ptr noundef nonnull readonly align 8 captures(none) dereferenceable(96) %0, ptr noundef nonnull align 8 dereferenceable(248) %1) unnamed_addr #4 align 2 {
  %3 = tail call noundef nonnull align 8 dereferenceable(8) ptr @_ZSt16__ostream_insertIcSt11char_traitsIcEERSt13basic_ostreamIT_T0_ES6_PKS3_l(ptr noundef nonnull align 8 dereferenceable(8) %1, ptr noundef nonnull @.str, i64 noundef 2)
  %4 = load ptr, ptr %1, align 8, !tbaa !21
  %5 = getelementptr i8, ptr %4, i64 -24
  %6 = load i64, ptr %5, align 8
  %7 = getelementptr inbounds i8, ptr %1, i64 %6
  %8 = getelementptr inbounds nuw i8, ptr %7, i64 24
  %9 = load i32, ptr %8, align 8, !tbaa !23
  %10 = and i32 %9, -177
  %11 = or disjoint i32 %10, 128
  store i32 %11, ptr %8, align 4, !tbaa !33
  %12 = load i64, ptr %5, align 8
  %13 = getelementptr inbounds i8, ptr %1, i64 %12
  %14 = getelementptr inbounds nuw i8, ptr %13, i64 24
  %15 = load i32, ptr %14, align 8, !tbaa !23
  %16 = and i32 %15, -261
  %17 = or disjoint i32 %16, 4
  store i32 %17, ptr %14, align 4, !tbaa !33
  %18 = getelementptr inbounds nuw i8, ptr %0, i64 48
  %19 = load i32, ptr %18, align 8, !tbaa !34
  %20 = load i64, ptr %5, align 8
  %21 = getelementptr inbounds i8, ptr %1, i64 %20
  %22 = sext i32 %19 to i64
  %23 = getelementptr inbounds nuw i8, ptr %21, i64 8
  store i64 %22, ptr %23, align 8, !tbaa !38
  %24 = load i64, ptr %5, align 8
  %25 = getelementptr inbounds i8, ptr %1, i64 %24
  %26 = getelementptr inbounds nuw i8, ptr %25, i64 16
  store i64 9, ptr %26, align 8, !tbaa !39
  %27 = getelementptr inbounds nuw i8, ptr %0, i64 40
  %28 = load double, ptr %27, align 8, !tbaa !40
  %29 = tail call noundef nonnull align 8 dereferenceable(8) ptr @_ZNSo9_M_insertIdEERSoT_(ptr noundef nonnull align 8 dereferenceable(8) %1, double noundef %28)
  ret void
}